target datalayout = "e-m:e-p270:32:32-p271:32:32-p272:64:64-i64:64-i128:128-f80:128-n8:16:32:64-S128"
target triple = "x86_64-unknown-linux-gnu"

%"class.(anonymous namespace)::Demangler" = type { ptr, i8, %"class.llvh::ms_demangle::ArenaAllocator", %"struct.(anonymous namespace)::BackrefContext" }
%"class.llvh::ms_demangle::ArenaAllocator" = type { ptr }
%"struct.(anonymous namespace)::BackrefContext" = type { [10 x ptr], i64, [10 x ptr], i64 }
%"struct.llvh::ms_demangle::ArenaAllocator::AllocatorNode" = type { ptr, i64, i64, ptr }

@_ZTVN12_GLOBAL__N_19DemanglerE = internal unnamed_addr constant { [4 x ptr] } { [4 x ptr] [ptr null, ptr null, ptr @_ZN12_GLOBAL__N_19DemanglerD2Ev, ptr @_ZN12_GLOBAL__N_19DemanglerD0Ev] }, align 8

; Function Attrs: mustprogress nounwind uwtable
define linkonce_odr hidden void @_ZN4llvh11ms_demangle14ArenaAllocatorD2Ev(ptr noundef nonnull align 8 dereferenceable(8) %this) unnamed_addr #0 comdat align 2 {
entry:
  %this.addr = alloca ptr, align 8
  %Next = alloca ptr, align 8
  store ptr %this, ptr %this.addr, align 8
  %this1 = load ptr, ptr %this.addr, align 8
  br label %while.cond

while.cond:                                       ; preds = %delete.end8, %entry
  %Head = getelementptr inbounds %"class.llvh::ms_demangle::ArenaAllocator", ptr %this1, i32 0, i32 0
  %0 = load ptr, ptr %Head, align 8
  %tobool = icmp ne ptr %0, null
  br i1 %tobool, label %while.body, label %while.end

while.body:                                       ; preds = %while.cond
  %Head2 = getelementptr inbounds %"class.llvh::ms_demangle::ArenaAllocator", ptr %this1, i32 0, i32 0
  %1 = load ptr, ptr %Head2, align 8
  %Buf = getelementptr inbounds %"struct.llvh::ms_demangle::ArenaAllocator::AllocatorNode", ptr %1, i32 0, i32 0
  %2 = load ptr, ptr %Buf, align 8
  %isnull = icmp eq ptr %2, null
  br i1 %isnull, label %delete.end, label %delete.notnull

delete.notnull:                                   ; preds = %while.body
  call void @_ZdaPv(ptr noundef %2) #17
  br label %delete.end

delete.end:                                       ; preds = %delete.notnull, %while.body
  %Head3 = getelementptr inbounds %"class.llvh::ms_demangle::ArenaAllocator", ptr %this1, i32 0, i32 0
  %3 = load ptr, ptr %Head3, align 8
  %Next4 = getelementptr inbounds %"struct.llvh::ms_demangle::ArenaAllocator::AllocatorNode", ptr %3, i32 0, i32 3
  %4 = load ptr, ptr %Next4, align 8
  store ptr %4, ptr %Next, align 8
  %Head5 = getelementptr inbounds %"class.llvh::ms_demangle::ArenaAllocator", ptr %this1, i32 0, i32 0
  %5 = load ptr, ptr %Head5, align 8
  %isnull6 = icmp eq ptr %5, null
  br i1 %isnull6, label %delete.end8, label %delete.notnull7

delete.notnull7:                                  ; preds = %delete.end
  call void @_ZdlPv(ptr noundef %5) #17
  br label %delete.end8

delete.end8:                                      ; preds = %delete.notnull7, %delete.end
  %6 = load ptr, ptr %Next, align 8
  %Head9 = getelementptr inbounds %"class.llvh::ms_demangle::ArenaAllocator", ptr %this1, i32 0, i32 0
  store ptr %6, ptr %Head9, align 8
  br label %while.cond, !llvm.loop !26

while.end:                                        ; preds = %while.cond
  ret void
}

; Function Attrs: mustprogress nounwind uwtable
define internal void @_ZN12_GLOBAL__N_19DemanglerD2Ev(ptr noundef nonnull align 8 dereferenceable(200) %this) unnamed_addr #0 align 2 {
entry:
  %this.addr = alloca ptr, align 8
  store ptr %this, ptr %this.addr, align 8
  %this1 = load ptr, ptr %this.addr, align 8
  store ptr getelementptr inbounds ({ [4 x ptr] }, ptr @_ZTVN12_GLOBAL__N_19DemanglerE, i32 0, i32 0, i32 2), ptr %this1, align 8
  %Arena = getelementptr inbounds %"class.(anonymous namespace)::Demangler", ptr %this1, i32 0, i32 2
  call void @_ZN4llvh11ms_demangle14ArenaAllocatorD2Ev(ptr noundef nonnull align 8 dereferenceable(8) %Arena) #13
  ret void
}

; Function Attrs: mustprogress nounwind uwtable
define internal void @_ZN12_GLOBAL__N_19DemanglerD0Ev(ptr noundef nonnull align 8 dereferenceable(200) %this) unnamed_addr #0 align 2 {
entry:
  %this.addr = alloca ptr, align 8
  store ptr %this, ptr %this.addr, align 8
  %this1 = load ptr, ptr %this.addr, align 8
  call void @_ZN12_GLOBAL__N_19DemanglerD2Ev(ptr noundef nonnull align 8 dereferenceable(200) %this1) #13
  call void @_ZdlPv(ptr noundef %this1) #17
  ret void
}