; Function Attrs: mustprogress nounwind uwtable
define internal void @_ZN12_GLOBAL__N_19DemanglerD0Ev(ptr noundef nonnull align 8 dereferenceable(200) %this) unnamed_addr #2 align 2 {
entry:
  store ptr getelementptr inbounds ({ [4 x ptr] }, ptr @_ZTVN12_GLOBAL__N_19DemanglerE, i64 0, i32 0, i64 2), ptr %this, align 8
  %Arena.i = getelementptr inbounds i8, ptr %this, i64 16
  %.pr.i.i = load ptr, ptr %Arena.i, align 8
  %tobool.not3.i.i = icmp eq ptr %.pr.i.i, null
  br i1 %tobool.not3.i.i, label %_ZN12_GLOBAL__N_19DemanglerD2Ev.exit, label %while.body.i.i

while.body.i.i:                                   ; preds = %entry, %delete.end8.i.i
  %0 = phi ptr [ %3, %delete.end8.i.i ], [ %.pr.i.i, %entry ]
  %1 = load ptr, ptr %0, align 8
  %isnull.i.i = icmp eq ptr %1, null
  br i1 %isnull.i.i, label %delete.end8.i.i, label %delete.notnull.i.i

delete.notnull.i.i:                               ; preds = %while.body.i.i
  tail call void @_ZdaPv(ptr noundef nonnull %1) #26
  %.pre.i.i = load ptr, ptr %Arena.i, align 8
  br label %delete.end8.i.i

delete.end8.i.i:                                  ; preds = %delete.notnull.i.i, %while.body.i.i
  %2 = phi ptr [ %.pre.i.i, %delete.notnull.i.i ], [ %0, %while.body.i.i ]
  %Next4.i.i = getelementptr inbounds i8, ptr %2, i64 24
  %3 = load ptr, ptr %Next4.i.i, align 8
  tail call void @_ZdlPv(ptr noundef %2) #26
  store ptr %3, ptr %Arena.i, align 8
  %tobool.not.i.i = icmp eq ptr %3, null
  br i1 %tobool.not.i.i, label %_ZN12_GLOBAL__N_19DemanglerD2Ev.exit, label %while.body.i.i, !llvm.loop !9

_ZN12_GLOBAL__N_19DemanglerD2Ev.exit:             ; preds = %delete.end8.i.i, %entry
  tail call void @_ZdlPv(ptr noundef nonnull %this) #26
  ret void
}